; Function Attrs: mustprogress nofree nounwind uwtable
define dso_local void @_ZNK8QuantNet16print_quant_infoEv(ptr noundef nonnull readonly align 8 captures(none) dereferenceable(392) %0) local_unnamed_addr #13 align 2 {
  %2 = getelementptr inbounds nuw i8, ptr %0, i64 272
  %3 = getelementptr inbounds nuw i8, ptr %0, i64 280
  %4 = load ptr, ptr %3, align 8, !tbaa !99
  %5 = load ptr, ptr %2, align 8, !tbaa !52
  %6 = ptrtoint ptr %4 to i64
  %7 = ptrtoint ptr %5 to i64
  %8 = sub i64 %6, %7
  %9 = lshr exact i64 %8, 2
  %10 = trunc i64 %9 to i32
  %11 = icmp sgt i32 %10, 0
  br i1 %11, label %.lr.ph, label %._crit_edge

.lr.ph:                                           ; preds = %1
  %12 = getelementptr inbounds nuw i8, ptr %0, i64 320
  %13 = getelementptr inbounds nuw i8, ptr %0, i64 88
  %14 = getelementptr inbounds nuw i8, ptr %0, i64 248
  br label %15

._crit_edge:                                      ; preds = %15, %1
  ret void

15:                                               ; preds = %.lr.ph, %15
  %indvars.iv = phi i64 [ 0, %.lr.ph ], [ %indvars.iv.next, %15 ]
  %16 = load ptr, ptr %12, align 8, !tbaa !63
  %17 = getelementptr inbounds nuw %class.QuantBlobStat, ptr %16, i64 %indvars.iv
  %18 = load float, ptr %17, align 8, !tbaa !105
  %19 = fdiv float 1.270000e+02, %18
  %20 = load ptr, ptr @stderr, align 8, !tbaa !138
  %21 = load ptr, ptr %13, align 8, !tbaa !91
  %22 = load ptr, ptr %14, align 8, !tbaa !52
  %23 = getelementptr inbounds nuw i32, ptr %22, i64 %indvars.iv
  %24 = load i32, ptr %23, align 4, !tbaa !101
  %25 = sext i32 %24 to i64
  %26 = load ptr, ptr %21, align 8, !tbaa !96
  %27 = getelementptr inbounds nuw ptr, ptr %26, i64 %25
  %28 = load ptr, ptr %27, align 8, !tbaa !97
  %29 = getelementptr inbounds nuw i8, ptr %28, i64 80
  %30 = load ptr, ptr %29, align 8, !tbaa !84
  %31 = getelementptr inbounds nuw i8, ptr %17, i64 4
  %32 = load float, ptr %31, align 4, !tbaa !114
  %33 = fpext float %32 to double
  %34 = fpext float %18 to double
  %35 = fpext float %19 to double
  %36 = tail call i32 (ptr, ptr, ...) @fprintf(ptr noundef %20, ptr noundef nonnull @.str.13, ptr noundef %30, double noundef %33, double noundef %34, double noundef %35) #36
  %indvars.iv.next = add nuw nsw i64 %indvars.iv, 1
  %37 = load ptr, ptr %3, align 8, !tbaa !99
  %38 = load ptr, ptr %2, align 8, !tbaa !52
  %39 = ptrtoint ptr %37 to i64
  %40 = ptrtoint ptr %38 to i64
  %41 = sub i64 %39, %40
  %sext = shl i64 %41, 30
  %42 = ashr i64 %sext, 32
  %43 = icmp slt i64 %indvars.iv.next, %42
  br i1 %43, label %15, label %._crit_edge, !llvm.loop !145
}